target datalayout = "e-m:e-p270:32:32-p271:32:32-p272:64:64-i64:64-i128:128-f80:128-n8:16:32:64-S128"
target triple = "x86_64-pc-linux-gnu"

%struct.Abc_Ntk_t_ = type { i32, i32, ptr, ptr, ptr, ptr, ptr, ptr, ptr, ptr, ptr, ptr, ptr, [11 x i32], i32, i32, i32, i32, ptr, i32, ptr, ptr, i32, i32, i32, double, i32, %struct.Vec_Int_t_, ptr, ptr, ptr, ptr, ptr, float, i32, ptr, ptr, ptr, ptr, ptr, ptr, ptr, ptr, ptr, ptr, ptr, ptr, ptr, ptr, ptr, ptr, ptr, ptr, ptr, ptr, ptr }
%struct.Vec_Int_t_ = type { i32, i32, ptr }

@globalUtilOptind = external global i32, align 4
@.str.47 = private unnamed_addr constant [60 x i8] c"Command line switch \22-N\22 should be followed by an integer.\0A\00", align 1
@.str.79 = private unnamed_addr constant [4 x i8] c"yes\00", align 1
@.str.80 = private unnamed_addr constant [3 x i8] c"no\00", align 1
@.str.229 = private unnamed_addr constant [62 x i8] c"\09-v     : toggle printing verbose information [default = %s]\0A\00", align 1
@.str.230 = private unnamed_addr constant [35 x i8] c"\09-h     : print the command usage\0A\00", align 1
@.str.245 = private unnamed_addr constant [5 x i8] c"NIvh\00", align 1
@.str.246 = private unnamed_addr constant [79 x i8] c"Command line switch \22-I\22 should be followed by a string (possibly in quotes).\0A\00", align 1
@.str.247 = private unnamed_addr constant [30 x i8] c"There is no current network.\0A\00", align 1
@.str.248 = private unnamed_addr constant [36 x i8] c"The current network is not an AIG.\0A\00", align 1
@.str.249 = private unnamed_addr constant [37 x i8] c"usage: sgen [-N num] [-I num] [-vh]\0A\00", align 1
@.str.250 = private unnamed_addr constant [45 x i8] c"\09         experiment with script generation\0A\00", align 1
@.str.251 = private unnamed_addr constant [56 x i8] c"\09-N num : the number of commands to use [default = %d]\0A\00", align 1
@.str.252 = private unnamed_addr constant [62 x i8] c"\09-I num : the number of iterations to perform [default = %d]\0A\00", align 1

; Function Attrs: nounwind uwtable
define internal i32 @Abc_NtkIsStrash(ptr noundef %0) #0 {
  %2 = alloca ptr, align 8
  store ptr %0, ptr %2, align 8
  %3 = load ptr, ptr %2, align 8
  %4 = getelementptr inbounds %struct.Abc_Ntk_t_, ptr %3, i32 0, i32 0
  %5 = load i32, ptr %4, align 8
  %6 = icmp eq i32 %5, 3
  %7 = zext i1 %6 to i32
  ret i32 %7
}

; Function Attrs: nounwind uwtable
define internal i32 @CmdCommandSGen(ptr noundef %0, i32 noundef %1, ptr noundef %2) #0 {
  %4 = alloca i32, align 4
  %5 = alloca ptr, align 8
  %6 = alloca i32, align 4
  %7 = alloca ptr, align 8
  %8 = alloca i32, align 4
  %9 = alloca i32, align 4
  %10 = alloca i32, align 4
  %11 = alloca i32, align 4
  store ptr %0, ptr %5, align 8
  store i32 %1, ptr %6, align 4
  store ptr %2, ptr %7, align 8
  store i32 10, ptr %9, align 4
  store i32 10, ptr %10, align 4
  store i32 0, ptr %11, align 4
  call void (...) @Extra_UtilGetoptReset()
  br label %12

12:                                               ; preds = %56, %3
  %13 = load i32, ptr %6, align 4
  %14 = load ptr, ptr %7, align 8
  %15 = call i32 @Extra_UtilGetopt(i32 noundef %13, ptr noundef %14, ptr noundef @.str.245)
  store i32 %15, ptr %8, align 4
  %16 = icmp ne i32 %15, -1
  br i1 %16, label %17, label %57

17:                                               ; preds = %12
  %18 = load i32, ptr %8, align 4
  switch i32 %18, label %55 [
    i32 78, label %19
    i32 73, label %37
    i32 118, label %51
    i32 104, label %54
  ]

19:                                               ; preds = %17
  %20 = load i32, ptr @globalUtilOptind, align 4
  %21 = load i32, ptr %6, align 4
  %22 = icmp sge i32 %20, %21
  br i1 %22, label %23, label %24

23:                                               ; preds = %19
  call void (i32, ptr, ...) @Abc_Print(i32 noundef -1, ptr noundef @.str.47)
  br label %73

24:                                               ; preds = %19
  %25 = load ptr, ptr %7, align 8
  %26 = load i32, ptr @globalUtilOptind, align 4
  %27 = sext i32 %26 to i64
  %28 = getelementptr inbounds ptr, ptr %25, i64 %27
  %29 = load ptr, ptr %28, align 8
  %30 = call i32 @atoi(ptr noundef %29) #10
  store i32 %30, ptr %9, align 4
  %31 = load i32, ptr @globalUtilOptind, align 4
  %32 = add nsw i32 %31, 1
  store i32 %32, ptr @globalUtilOptind, align 4
  %33 = load i32, ptr %9, align 4
  %34 = icmp slt i32 %33, 0
  br i1 %34, label %35, label %36

35:                                               ; preds = %24
  br label %73

36:                                               ; preds = %24
  br label %56

37:                                               ; preds = %17
  %38 = load i32, ptr @globalUtilOptind, align 4
  %39 = load i32, ptr %6, align 4
  %40 = icmp sge i32 %38, %39
  br i1 %40, label %41, label %42

41:                                               ; preds = %37
  call void (i32, ptr, ...) @Abc_Print(i32 noundef -1, ptr noundef @.str.246)
  br label %73

42:                                               ; preds = %37
  %43 = load ptr, ptr %7, align 8
  %44 = load i32, ptr @globalUtilOptind, align 4
  %45 = sext i32 %44 to i64
  %46 = getelementptr inbounds ptr, ptr %43, i64 %45
  %47 = load ptr, ptr %46, align 8
  %48 = call i32 @atoi(ptr noundef %47) #10
  store i32 %48, ptr %10, align 4
  %49 = load i32, ptr @globalUtilOptind, align 4
  %50 = add nsw i32 %49, 1
  store i32 %50, ptr @globalUtilOptind, align 4
  br label %56

51:                                               ; preds = %17
  %52 = load i32, ptr %11, align 4
  %53 = xor i32 %52, 1
  store i32 %53, ptr %11, align 4
  br label %56

54:                                               ; preds = %17
  br label %73

55:                                               ; preds = %17
  br label %73

56:                                               ; preds = %51, %42, %36
  br label %12, !llvm.loop !26

57:                                               ; preds = %12
  %58 = load ptr, ptr %5, align 8
  %59 = call ptr @Abc_FrameReadNtk(ptr noundef %58)
  %60 = icmp eq ptr %59, null
  br i1 %60, label %61, label %62

61:                                               ; preds = %57
  call void (i32, ptr, ...) @Abc_Print(i32 noundef -2, ptr noundef @.str.247)
  store i32 1, ptr %4, align 4
  br label %79

62:                                               ; preds = %57
  %63 = load ptr, ptr %5, align 8
  %64 = call ptr @Abc_FrameReadNtk(ptr noundef %63)
  %65 = call i32 @Abc_NtkIsStrash(ptr noundef %64)
  %66 = icmp ne i32 %65, 0
  br i1 %66, label %68, label %67

67:                                               ; preds = %62
  call void (i32, ptr, ...) @Abc_Print(i32 noundef -2, ptr noundef @.str.248)
  store i32 1, ptr %4, align 4
  br label %79

68:                                               ; preds = %62
  %69 = load ptr, ptr %5, align 8
  %70 = load i32, ptr %9, align 4
  %71 = load i32, ptr %10, align 4
  %72 = load i32, ptr %11, align 4
  call void @Cmd_CommandSGen(ptr noundef %69, i32 noundef %70, i32 noundef %71, i32 noundef %72)
  store i32 0, ptr %4, align 4
  br label %79

73:                                               ; preds = %55, %54, %41, %35, %23
  call void (i32, ptr, ...) @Abc_Print(i32 noundef -2, ptr noundef @.str.249)
  call void (i32, ptr, ...) @Abc_Print(i32 noundef -2, ptr noundef @.str.250)
  %74 = load i32, ptr %9, align 4
  call void (i32, ptr, ...) @Abc_Print(i32 noundef -2, ptr noundef @.str.251, i32 noundef %74)
  %75 = load i32, ptr %10, align 4
  call void (i32, ptr, ...) @Abc_Print(i32 noundef -2, ptr noundef @.str.252, i32 noundef %75)
  %76 = load i32, ptr %11, align 4
  %77 = icmp ne i32 %76, 0
  %78 = select i1 %77, ptr @.str.79, ptr @.str.80
  call void (i32, ptr, ...) @Abc_Print(i32 noundef -2, ptr noundef @.str.229, ptr noundef %78)
  call void (i32, ptr, ...) @Abc_Print(i32 noundef -2, ptr noundef @.str.230)
  store i32 1, ptr %4, align 4
  br label %79

79:                                               ; preds = %73, %68, %67, %61
  %80 = load i32, ptr %4, align 4
  ret i32 %80
}