; Function Attrs: nounwind uwtable
define internal range(i32 0, 2) i32 @CmdCommandSGen(ptr noundef %0, i32 noundef %1, ptr noundef %2) #0 {
  tail call void (...) @Extra_UtilGetoptReset() #17
  br label %.outer

.outer:                                           ; preds = %8, %3
  %.020.ph = phi i32 [ %12, %8 ], [ 10, %3 ]
  %.018.ph = phi i32 [ %.018.ph74, %8 ], [ 10, %3 ]
  %.0.ph = phi i32 [ %.0, %8 ], [ 0, %3 ]
  br label %.outer73

.outer73:                                         ; preds = %.outer, %17
  %.018.ph74 = phi i32 [ %.018.ph, %.outer ], [ %21, %17 ]
  %.0.ph75 = phi i32 [ %.0.ph, %.outer ], [ %.0, %17 ]
  br label %4

4:                                                ; preds = %.outer73, %23
  %.0 = phi i32 [ %24, %23 ], [ %.0.ph75, %.outer73 ]
  %5 = tail call i32 @Extra_UtilGetopt(i32 noundef %1, ptr noundef %2, ptr noundef nonnull @.str.245) #17
  switch i32 %5, label %.loopexit [
    i32 -1, label %25
    i32 78, label %6
    i32 73, label %15
    i32 118, label %23
  ]

6:                                                ; preds = %4
  %7 = load i32, ptr @globalUtilOptind, align 4
  %.not30 = icmp slt i32 %7, %1
  br i1 %.not30, label %8, label %.loopexit.sink.split

8:                                                ; preds = %6
  %9 = sext i32 %7 to i64
  %10 = getelementptr inbounds ptr, ptr %2, i64 %9
  %11 = load ptr, ptr %10, align 8
  %12 = tail call i32 @atoi(ptr noundef %11) #19
  %13 = add nsw i32 %7, 1
  store i32 %13, ptr @globalUtilOptind, align 4
  %14 = icmp slt i32 %12, 0
  br i1 %14, label %.loopexit, label %.outer, !llvm.loop !26

15:                                               ; preds = %4
  %16 = load i32, ptr @globalUtilOptind, align 4
  %.not29 = icmp slt i32 %16, %1
  br i1 %.not29, label %17, label %.loopexit.sink.split

17:                                               ; preds = %15
  %18 = sext i32 %16 to i64
  %19 = getelementptr inbounds ptr, ptr %2, i64 %18
  %20 = load ptr, ptr %19, align 8
  %21 = tail call i32 @atoi(ptr noundef %20) #19
  %22 = add nsw i32 %16, 1
  store i32 %22, ptr @globalUtilOptind, align 4
  br label %.outer73, !llvm.loop !26

23:                                               ; preds = %4
  %24 = xor i32 %.0, 1
  br label %4, !llvm.loop !26

25:                                               ; preds = %4
  %26 = tail call ptr @Abc_FrameReadNtk(ptr noundef %0) #17
  %27 = icmp eq ptr %26, null
  br i1 %27, label %28, label %29

28:                                               ; preds = %25
  tail call void (i32, ptr, ...) @Abc_Print(i32 noundef -2, ptr noundef nonnull @.str.247)
  br label %34

29:                                               ; preds = %25
  %30 = tail call ptr @Abc_FrameReadNtk(ptr noundef %0) #17
  %.val = load i32, ptr %30, align 8
  %.not = icmp eq i32 %.val, 3
  br i1 %.not, label %32, label %31

31:                                               ; preds = %29
  tail call void (i32, ptr, ...) @Abc_Print(i32 noundef -2, ptr noundef nonnull @.str.248)
  br label %34

32:                                               ; preds = %29
  tail call void @Cmd_CommandSGen(ptr noundef %0, i32 noundef %.020.ph, i32 noundef %.018.ph74, i32 noundef %.0) #17
  br label %34

.loopexit.sink.split:                             ; preds = %6, %15
  %.str.246.sink = phi ptr [ @.str.246, %15 ], [ @.str.47, %6 ]
  tail call void (i32, ptr, ...) @Abc_Print(i32 noundef -1, ptr noundef nonnull %.str.246.sink)
  br label %.loopexit

.loopexit:                                        ; preds = %4, %8, %.loopexit.sink.split
  %.121 = phi i32 [ %.020.ph, %.loopexit.sink.split ], [ %.020.ph, %4 ], [ %12, %8 ]
  tail call void (i32, ptr, ...) @Abc_Print(i32 noundef -2, ptr noundef nonnull @.str.249)
  tail call void (i32, ptr, ...) @Abc_Print(i32 noundef -2, ptr noundef nonnull @.str.250)
  tail call void (i32, ptr, ...) @Abc_Print(i32 noundef -2, ptr noundef nonnull @.str.251, i32 noundef %.121)
  tail call void (i32, ptr, ...) @Abc_Print(i32 noundef -2, ptr noundef nonnull @.str.252, i32 noundef %.018.ph74)
  %.not31 = icmp eq i32 %.0, 0
  %33 = select i1 %.not31, ptr @.str.80, ptr @.str.79
  tail call void (i32, ptr, ...) @Abc_Print(i32 noundef -2, ptr noundef nonnull @.str.229, ptr noundef nonnull %33)
  tail call void (i32, ptr, ...) @Abc_Print(i32 noundef -2, ptr noundef nonnull @.str.230)
  br label %34

34:                                               ; preds = %.loopexit, %32, %31, %28
  %.022 = phi i32 [ 1, %.loopexit ], [ 1, %28 ], [ 0, %32 ], [ 1, %31 ]
  ret i32 %.022
}